target datalayout = "e-m:e-p270:32:32-p271:32:32-p272:64:64-i64:64-i128:128-f80:128-n8:16:32:64-S128"
target triple = "x86_64-pc-linux-gnu"

%"struct.c4::yml::Callbacks" = type { ptr, ptr, ptr, ptr }
%"struct.c4::basic_substring.0" = type { ptr, i64 }
%"struct.c4::basic_substring" = type { ptr, i64 }
%"class.c4::yml::Tree" = type { ptr, i64, i64, i64, i64, %"struct.c4::basic_substring", i64, %"struct.c4::yml::Callbacks", [4 x %"struct.c4::yml::TagDirective"] }
%"struct.c4::yml::TagDirective" = type { %"struct.c4::basic_substring.0", %"struct.c4::basic_substring.0", i64 }
%"struct.c4::yml::NodeData" = type { %"struct.c4::yml::NodeType", %"struct.c4::yml::NodeScalar", %"struct.c4::yml::NodeScalar", i64, i64, i64, i64, i64 }
%"struct.c4::yml::NodeType" = type { i64 }
%"struct.c4::yml::NodeScalar" = type { %"struct.c4::basic_substring.0", %"struct.c4::basic_substring.0", %"struct.c4::basic_substring.0" }

; Function Attrs: alwaysinline mustprogress nounwind uwtable
define linkonce_odr noundef zeroext i1 @_ZNK2c43yml8NodeType11has_val_tagEv(ptr noundef nonnull align 8 dereferenceable(8) %0) #9 comdat align 2 {
  %2 = alloca ptr, align 8
  store ptr %0, ptr %2, align 8, !tbaa !150
  %3 = load ptr, ptr %2, align 8
  %4 = getelementptr inbounds nuw %"struct.c4::yml::NodeType", ptr %3, i32 0, i32 0
  %5 = load i64, ptr %4, align 8, !tbaa !152
  %6 = and i64 %5, 2048
  %7 = icmp ne i64 %6, 0
  br i1 %7, label %8, label %13

8:                                                ; preds = %1
  %9 = getelementptr inbounds nuw %"struct.c4::yml::NodeType", ptr %3, i32 0, i32 0
  %10 = load i64, ptr %9, align 8, !tbaa !152
  %11 = and i64 %10, 13
  %12 = icmp ne i64 %11, 0
  br label %13

13:                                               ; preds = %8, %1
  %14 = phi i1 [ false, %1 ], [ %12, %8 ]
  ret i1 %14
}

; Function Attrs: alwaysinline mustprogress nounwind uwtable
define linkonce_odr noundef zeroext i1 @_ZNK2c43yml8NodeType7has_valEv(ptr noundef nonnull align 8 dereferenceable(8) %0) #9 comdat align 2 {
  %2 = alloca ptr, align 8
  store ptr %0, ptr %2, align 8, !tbaa !150
  %3 = load ptr, ptr %2, align 8
  %4 = getelementptr inbounds nuw %"struct.c4::yml::NodeType", ptr %3, i32 0, i32 0
  %5 = load i64, ptr %4, align 8, !tbaa !152
  %6 = and i64 %5, 1
  %7 = icmp ne i64 %6, 0
  ret i1 %7
}

; Function Attrs: alwaysinline mustprogress nounwind uwtable
define linkonce_odr noundef zeroext i1 @_ZNK2c43yml8NodeType11has_key_tagEv(ptr noundef nonnull align 8 dereferenceable(8) %0) #9 comdat align 2 {
  %2 = alloca ptr, align 8
  store ptr %0, ptr %2, align 8, !tbaa !150
  %3 = load ptr, ptr %2, align 8
  %4 = getelementptr inbounds nuw %"struct.c4::yml::NodeType", ptr %3, i32 0, i32 0
  %5 = load i64, ptr %4, align 8, !tbaa !152
  %6 = and i64 %5, 1026
  %7 = icmp eq i64 %6, 1026
  ret i1 %7
}

; Function Attrs: alwaysinline mustprogress nounwind uwtable
define linkonce_odr noundef zeroext i1 @_ZNK2c43yml8NodeType7has_keyEv(ptr noundef nonnull align 8 dereferenceable(8) %0) #9 comdat align 2 {
  %2 = alloca ptr, align 8
  store ptr %0, ptr %2, align 8, !tbaa !150
  %3 = load ptr, ptr %2, align 8
  %4 = getelementptr inbounds nuw %"struct.c4::yml::NodeType", ptr %3, i32 0, i32 0
  %5 = load i64, ptr %4, align 8, !tbaa !152
  %6 = and i64 %5, 2
  %7 = icmp ne i64 %6, 0
  ret i1 %7
}

; Function Attrs: inlinehint mustprogress nounwind uwtable
define linkonce_odr noundef ptr @_ZNK2c43yml4Tree2_pEm(ptr noundef nonnull align 8 dereferenceable(256) %0, i64 noundef %1) #3 comdat align 2 {
  %3 = alloca ptr, align 8
  %4 = alloca i64, align 8
  store ptr %0, ptr %3, align 8, !tbaa !96
  store i64 %1, ptr %4, align 8, !tbaa !15
  %5 = load ptr, ptr %3, align 8
  %6 = getelementptr inbounds nuw %"class.c4::yml::Tree", ptr %5, i32 0, i32 0
  %7 = load ptr, ptr %6, align 8, !tbaa !118
  %8 = load i64, ptr %4, align 8, !tbaa !15
  %9 = getelementptr inbounds nuw %"struct.c4::yml::NodeData", ptr %7, i64 %8
  ret ptr %9
}

; Function Attrs: mustprogress uwtable
define linkonce_odr noundef i64 @_ZNK2c43yml4Tree12next_siblingEm(ptr noundef nonnull align 8 dereferenceable(256) %0, i64 noundef %1) #1 comdat align 2 {
  %3 = alloca ptr, align 8
  %4 = alloca i64, align 8
  store ptr %0, ptr %3, align 8, !tbaa !96
  store i64 %1, ptr %4, align 8, !tbaa !15
  %5 = load ptr, ptr %3, align 8
  %6 = load i64, ptr %4, align 8, !tbaa !15
  %7 = call noundef ptr @_ZNK2c43yml4Tree2_pEm(ptr noundef nonnull align 8 dereferenceable(256) %5, i64 noundef %6)
  %8 = getelementptr inbounds nuw %"struct.c4::yml::NodeData", ptr %7, i32 0, i32 6
  %9 = load i64, ptr %8, align 8, !tbaa !127
  ret i64 %9
}

; Function Attrs: mustprogress nounwind uwtable
define linkonce_odr noundef nonnull align 8 dereferenceable(16) ptr @_ZNK2c43yml4Tree7val_tagEm(ptr noundef nonnull align 8 dereferenceable(256) %0, i64 noundef %1) #0 comdat align 2 {
  %3 = alloca ptr, align 8
  %4 = alloca i64, align 8
  store ptr %0, ptr %3, align 8, !tbaa !96
  store i64 %1, ptr %4, align 8, !tbaa !15
  %5 = load ptr, ptr %3, align 8
  %6 = load i64, ptr %4, align 8, !tbaa !15
  %7 = call noundef ptr @_ZNK2c43yml4Tree2_pEm(ptr noundef nonnull align 8 dereferenceable(256) %5, i64 noundef %6)
  %8 = getelementptr inbounds nuw %"struct.c4::yml::NodeData", ptr %7, i32 0, i32 2
  %9 = getelementptr inbounds nuw %"struct.c4::yml::NodeScalar", ptr %8, i32 0, i32 0
  ret ptr %9
}

; Function Attrs: alwaysinline mustprogress uwtable
define linkonce_odr noundef zeroext i1 @_ZNK2c43yml4Tree11has_val_tagEm(ptr noundef nonnull align 8 dereferenceable(256) %0, i64 noundef %1) #21 comdat align 2 {
  %3 = alloca ptr, align 8
  %4 = alloca i64, align 8
  store ptr %0, ptr %3, align 8, !tbaa !96
  store i64 %1, ptr %4, align 8, !tbaa !15
  %5 = load ptr, ptr %3, align 8
  %6 = load i64, ptr %4, align 8, !tbaa !15
  %7 = call noundef ptr @_ZNK2c43yml4Tree2_pEm(ptr noundef nonnull align 8 dereferenceable(256) %5, i64 noundef %6)
  %8 = getelementptr inbounds nuw %"struct.c4::yml::NodeData", ptr %7, i32 0, i32 0
  %9 = call noundef zeroext i1 @_ZNK2c43yml8NodeType11has_val_tagEv(ptr noundef nonnull align 8 dereferenceable(8) %8)
  ret i1 %9
}

; Function Attrs: alwaysinline mustprogress uwtable
define linkonce_odr noundef zeroext i1 @_ZNK2c43yml4Tree7has_valEm(ptr noundef nonnull align 8 dereferenceable(256) %0, i64 noundef %1) #21 comdat align 2 {
  %3 = alloca ptr, align 8
  %4 = alloca i64, align 8
  store ptr %0, ptr %3, align 8, !tbaa !96
  store i64 %1, ptr %4, align 8, !tbaa !15
  %5 = load ptr, ptr %3, align 8
  %6 = load i64, ptr %4, align 8, !tbaa !15
  %7 = call noundef ptr @_ZNK2c43yml4Tree2_pEm(ptr noundef nonnull align 8 dereferenceable(256) %5, i64 noundef %6)
  %8 = getelementptr inbounds nuw %"struct.c4::yml::NodeData", ptr %7, i32 0, i32 0
  %9 = call noundef zeroext i1 @_ZNK2c43yml8NodeType7has_valEv(ptr noundef nonnull align 8 dereferenceable(8) %8)
  ret i1 %9
}

; Function Attrs: mustprogress nounwind uwtable
define linkonce_odr noundef nonnull align 8 dereferenceable(16) ptr @_ZNK2c43yml4Tree7key_tagEm(ptr noundef nonnull align 8 dereferenceable(256) %0, i64 noundef %1) #0 comdat align 2 {
  %3 = alloca ptr, align 8
  %4 = alloca i64, align 8
  store ptr %0, ptr %3, align 8, !tbaa !96
  store i64 %1, ptr %4, align 8, !tbaa !15
  %5 = load ptr, ptr %3, align 8
  %6 = load i64, ptr %4, align 8, !tbaa !15
  %7 = call noundef ptr @_ZNK2c43yml4Tree2_pEm(ptr noundef nonnull align 8 dereferenceable(256) %5, i64 noundef %6)
  %8 = getelementptr inbounds nuw %"struct.c4::yml::NodeData", ptr %7, i32 0, i32 1
  %9 = getelementptr inbounds nuw %"struct.c4::yml::NodeScalar", ptr %8, i32 0, i32 0
  ret ptr %9
}

; Function Attrs: mustprogress nounwind uwtable
define linkonce_odr void @_ZN2c415basic_substringIcEC2Ev(ptr noundef nonnull align 8 dereferenceable(16) %0) unnamed_addr #0 comdat align 2 {
  %2 = alloca ptr, align 8
  store ptr %0, ptr %2, align 8, !tbaa !30
  %3 = load ptr, ptr %2, align 8
  %4 = getelementptr inbounds nuw %"struct.c4::basic_substring", ptr %3, i32 0, i32 0
  store ptr null, ptr %4, align 8, !tbaa !6
  %5 = getelementptr inbounds nuw %"struct.c4::basic_substring", ptr %3, i32 0, i32 1
  store i64 0, ptr %5, align 8, !tbaa !14
  ret void
}

; Function Attrs: alwaysinline mustprogress uwtable
define linkonce_odr noundef zeroext i1 @_ZNK2c43yml4Tree11has_key_tagEm(ptr noundef nonnull align 8 dereferenceable(256) %0, i64 noundef %1) #21 comdat align 2 {
  %3 = alloca ptr, align 8
  %4 = alloca i64, align 8
  store ptr %0, ptr %3, align 8, !tbaa !96
  store i64 %1, ptr %4, align 8, !tbaa !15
  %5 = load ptr, ptr %3, align 8
  %6 = load i64, ptr %4, align 8, !tbaa !15
  %7 = call noundef ptr @_ZNK2c43yml4Tree2_pEm(ptr noundef nonnull align 8 dereferenceable(256) %5, i64 noundef %6)
  %8 = getelementptr inbounds nuw %"struct.c4::yml::NodeData", ptr %7, i32 0, i32 0
  %9 = call noundef zeroext i1 @_ZNK2c43yml8NodeType11has_key_tagEv(ptr noundef nonnull align 8 dereferenceable(8) %8)
  ret i1 %9
}

; Function Attrs: alwaysinline mustprogress uwtable
define linkonce_odr noundef zeroext i1 @_ZNK2c43yml4Tree7has_keyEm(ptr noundef nonnull align 8 dereferenceable(256) %0, i64 noundef %1) #21 comdat align 2 {
  %3 = alloca ptr, align 8
  %4 = alloca i64, align 8
  store ptr %0, ptr %3, align 8, !tbaa !96
  store i64 %1, ptr %4, align 8, !tbaa !15
  %5 = load ptr, ptr %3, align 8
  %6 = load i64, ptr %4, align 8, !tbaa !15
  %7 = call noundef ptr @_ZNK2c43yml4Tree2_pEm(ptr noundef nonnull align 8 dereferenceable(256) %5, i64 noundef %6)
  %8 = getelementptr inbounds nuw %"struct.c4::yml::NodeData", ptr %7, i32 0, i32 0
  %9 = call noundef zeroext i1 @_ZNK2c43yml8NodeType7has_keyEv(ptr noundef nonnull align 8 dereferenceable(8) %8)
  ret i1 %9
}

; Function Attrs: mustprogress uwtable
define linkonce_odr noundef i64 @_ZNK2c43yml4Tree11first_childEm(ptr noundef nonnull align 8 dereferenceable(256) %0, i64 noundef %1) #1 comdat align 2 {
  %3 = alloca ptr, align 8
  %4 = alloca i64, align 8
  store ptr %0, ptr %3, align 8, !tbaa !96
  store i64 %1, ptr %4, align 8, !tbaa !15
  %5 = load ptr, ptr %3, align 8
  %6 = load i64, ptr %4, align 8, !tbaa !15
  %7 = call noundef ptr @_ZNK2c43yml4Tree2_pEm(ptr noundef nonnull align 8 dereferenceable(256) %5, i64 noundef %6)
  %8 = getelementptr inbounds nuw %"struct.c4::yml::NodeData", ptr %7, i32 0, i32 4
  %9 = load i64, ptr %8, align 8, !tbaa !146
  ret i64 %9
}

; Function Attrs: mustprogress uwtable
define internal noundef i64 @_ZN2c43yml12_GLOBAL__N_125_count_resolved_tags_sizeEPKNS0_4TreeEm(ptr noundef %0, i64 noundef %1) #1 {
  %3 = alloca ptr, align 8
  %4 = alloca i64, align 8
  %5 = alloca i64, align 8
  %6 = alloca i64, align 8
  %7 = alloca %"struct.c4::basic_substring", align 8
  %8 = alloca %"struct.c4::basic_substring.0", align 8
  %9 = alloca %"struct.c4::basic_substring", align 8
  %10 = alloca %"struct.c4::basic_substring.0", align 8
  store ptr %0, ptr %3, align 8, !tbaa !96
  store i64 %1, ptr %4, align 8, !tbaa !15
  call void @llvm.lifetime.start.p0(i64 8, ptr %5) #25
  store i64 0, ptr %5, align 8, !tbaa !15
  call void @llvm.lifetime.start.p0(i64 8, ptr %6) #25
  %11 = load ptr, ptr %3, align 8, !tbaa !96
  %12 = load i64, ptr %4, align 8, !tbaa !15
  %13 = call noundef i64 @_ZNK2c43yml4Tree11first_childEm(ptr noundef nonnull align 8 dereferenceable(256) %11, i64 noundef %12)
  store i64 %13, ptr %6, align 8, !tbaa !15
  br label %14

14:                                               ; preds = %74, %2
  %15 = load i64, ptr %6, align 8, !tbaa !15
  %16 = icmp ne i64 %15, -1
  br i1 %16, label %18, label %17

17:                                               ; preds = %14
  call void @llvm.lifetime.end.p0(i64 8, ptr %6) #25
  br label %78

18:                                               ; preds = %14
  %19 = load ptr, ptr %3, align 8, !tbaa !96
  %20 = load i64, ptr %6, align 8, !tbaa !15
  %21 = call noundef zeroext i1 @_ZNK2c43yml4Tree7has_keyEm(ptr noundef nonnull align 8 dereferenceable(256) %19, i64 noundef %20)
  br i1 %21, label %22, label %43

22:                                               ; preds = %18
  %23 = load ptr, ptr %3, align 8, !tbaa !96
  %24 = load i64, ptr %6, align 8, !tbaa !15
  %25 = call noundef zeroext i1 @_ZNK2c43yml4Tree11has_key_tagEm(ptr noundef nonnull align 8 dereferenceable(256) %23, i64 noundef %24)
  br i1 %25, label %26, label %43

26:                                               ; preds = %22
  %27 = load ptr, ptr %3, align 8, !tbaa !96
  call void @_ZN2c415basic_substringIcEC2Ev(ptr noundef nonnull align 8 dereferenceable(16) %7)
  %28 = load ptr, ptr %3, align 8, !tbaa !96
  %29 = load i64, ptr %6, align 8, !tbaa !15
  %30 = call noundef nonnull align 8 dereferenceable(16) ptr @_ZNK2c43yml4Tree7key_tagEm(ptr noundef nonnull align 8 dereferenceable(256) %28, i64 noundef %29)
  call void @llvm.memcpy.p0.p0.i64(ptr align 8 %8, ptr align 8 %30, i64 16, i1 false), !tbaa.struct !69
  %31 = load i64, ptr %6, align 8, !tbaa !15
  %32 = getelementptr inbounds nuw { ptr, i64 }, ptr %7, i32 0, i32 0
  %33 = load ptr, ptr %32, align 8
  %34 = getelementptr inbounds nuw { ptr, i64 }, ptr %7, i32 0, i32 1
  %35 = load i64, ptr %34, align 8
  %36 = getelementptr inbounds nuw { ptr, i64 }, ptr %8, i32 0, i32 0
  %37 = load ptr, ptr %36, align 8
  %38 = getelementptr inbounds nuw { ptr, i64 }, ptr %8, i32 0, i32 1
  %39 = load i64, ptr %38, align 8
  %40 = call noundef i64 @_ZNK2c43yml4Tree11resolve_tagENS_15basic_substringIcEENS2_IKcEEm(ptr noundef nonnull align 8 dereferenceable(256) %27, ptr %33, i64 %35, ptr %37, i64 %39, i64 noundef %31)
  %41 = load i64, ptr %5, align 8, !tbaa !15
  %42 = add i64 %41, %40
  store i64 %42, ptr %5, align 8, !tbaa !15
  br label %43

43:                                               ; preds = %26, %22, %18
  %44 = load ptr, ptr %3, align 8, !tbaa !96
  %45 = load i64, ptr %6, align 8, !tbaa !15
  %46 = call noundef zeroext i1 @_ZNK2c43yml4Tree7has_valEm(ptr noundef nonnull align 8 dereferenceable(256) %44, i64 noundef %45)
  br i1 %46, label %47, label %68

47:                                               ; preds = %43
  %48 = load ptr, ptr %3, align 8, !tbaa !96
  %49 = load i64, ptr %6, align 8, !tbaa !15
  %50 = call noundef zeroext i1 @_ZNK2c43yml4Tree11has_val_tagEm(ptr noundef nonnull align 8 dereferenceable(256) %48, i64 noundef %49)
  br i1 %50, label %51, label %68

51:                                               ; preds = %47
  %52 = load ptr, ptr %3, align 8, !tbaa !96
  call void @_ZN2c415basic_substringIcEC2Ev(ptr noundef nonnull align 8 dereferenceable(16) %9)
  %53 = load ptr, ptr %3, align 8, !tbaa !96
  %54 = load i64, ptr %6, align 8, !tbaa !15
  %55 = call noundef nonnull align 8 dereferenceable(16) ptr @_ZNK2c43yml4Tree7val_tagEm(ptr noundef nonnull align 8 dereferenceable(256) %53, i64 noundef %54)
  call void @llvm.memcpy.p0.p0.i64(ptr align 8 %10, ptr align 8 %55, i64 16, i1 false), !tbaa.struct !69
  %56 = load i64, ptr %6, align 8, !tbaa !15
  %57 = getelementptr inbounds nuw { ptr, i64 }, ptr %9, i32 0, i32 0
  %58 = load ptr, ptr %57, align 8
  %59 = getelementptr inbounds nuw { ptr, i64 }, ptr %9, i32 0, i32 1
  %60 = load i64, ptr %59, align 8
  %61 = getelementptr inbounds nuw { ptr, i64 }, ptr %10, i32 0, i32 0
  %62 = load ptr, ptr %61, align 8
  %63 = getelementptr inbounds nuw { ptr, i64 }, ptr %10, i32 0, i32 1
  %64 = load i64, ptr %63, align 8
  %65 = call noundef i64 @_ZNK2c43yml4Tree11resolve_tagENS_15basic_substringIcEENS2_IKcEEm(ptr noundef nonnull align 8 dereferenceable(256) %52, ptr %58, i64 %60, ptr %62, i64 %64, i64 noundef %56)
  %66 = load i64, ptr %5, align 8, !tbaa !15
  %67 = add i64 %66, %65
  store i64 %67, ptr %5, align 8, !tbaa !15
  br label %68

68:                                               ; preds = %51, %47, %43
  %69 = load ptr, ptr %3, align 8, !tbaa !96
  %70 = load i64, ptr %6, align 8, !tbaa !15
  %71 = call noundef i64 @_ZN2c43yml12_GLOBAL__N_125_count_resolved_tags_sizeEPKNS0_4TreeEm(ptr noundef %69, i64 noundef %70)
  %72 = load i64, ptr %5, align 8, !tbaa !15
  %73 = add i64 %72, %71
  store i64 %73, ptr %5, align 8, !tbaa !15
  br label %74

74:                                               ; preds = %68
  %75 = load ptr, ptr %3, align 8, !tbaa !96
  %76 = load i64, ptr %6, align 8, !tbaa !15
  %77 = call noundef i64 @_ZNK2c43yml4Tree12next_siblingEm(ptr noundef nonnull align 8 dereferenceable(256) %75, i64 noundef %76)
  store i64 %77, ptr %6, align 8, !tbaa !15
  br label %14, !llvm.loop !202

78:                                               ; preds = %17
  %79 = load i64, ptr %5, align 8, !tbaa !15
  call void @llvm.lifetime.end.p0(i64 8, ptr %5) #25
  ret i64 %79
}