; Function Attrs: mustprogress uwtable
define internal fastcc noundef i64 @_ZN2c43yml12_GLOBAL__N_125_count_resolved_tags_sizeEPKNS0_4TreeEm(ptr noundef nonnull readonly captures(none) %0, i64 noundef %1) unnamed_addr #1 {
  %3 = load ptr, ptr %0, align 8, !tbaa !116
  %4 = getelementptr inbounds nuw %"struct.c4::yml::NodeData", ptr %3, i64 %1, i32 4
  %.02834 = load i64, ptr %4, align 8, !tbaa !68
  %.not35 = icmp eq i64 %.02834, -1
  br i1 %.not35, label %._crit_edge, label %.lr.ph

._crit_edge:                                      ; preds = %21, %2
  %.0.lcssa = phi i64 [ 0, %2 ], [ %23, %21 ]
  ret i64 %.0.lcssa

.lr.ph:                                           ; preds = %2, %21
  %5 = phi ptr [ %24, %21 ], [ %3, %2 ]
  %.02837 = phi i64 [ %.028, %21 ], [ %.02834, %2 ]
  %.036 = phi i64 [ %23, %21 ], [ 0, %2 ]
  %6 = getelementptr inbounds nuw %"struct.c4::yml::NodeData", ptr %5, i64 %.02837
  %7 = load i64, ptr %6, align 8, !tbaa !157
  %8 = and i64 %7, 1026
  %or.cond = icmp eq i64 %8, 1026
  br i1 %or.cond, label %9, label %13

9:                                                ; preds = %.lr.ph
  %10 = getelementptr inbounds nuw %"struct.c4::yml::NodeData", ptr %5, i64 %.02837, i32 1
  %.sroa.01.0.copyload = load ptr, ptr %10, align 8, !tbaa !67
  %.sroa.22.0..sroa_idx = getelementptr inbounds nuw i8, ptr %10, i64 8
  %.sroa.22.0.copyload = load i64, ptr %.sroa.22.0..sroa_idx, align 8, !tbaa !68
  %11 = tail call noundef i64 @_ZNK2c43yml4Tree11resolve_tagENS_15basic_substringIcEENS2_IKcEEm(ptr noundef nonnull align 8 dereferenceable(256) %0, ptr null, i64 0, ptr %.sroa.01.0.copyload, i64 %.sroa.22.0.copyload, i64 noundef %.02837)
  %12 = add i64 %11, %.036
  %.pre = load ptr, ptr %0, align 8, !tbaa !116
  %.phi.trans.insert = getelementptr inbounds nuw %"struct.c4::yml::NodeData", ptr %.pre, i64 %.02837
  %.pre38 = load i64, ptr %.phi.trans.insert, align 8, !tbaa !157
  br label %13

13:                                               ; preds = %9, %.lr.ph
  %14 = phi i64 [ %.pre38, %9 ], [ %7, %.lr.ph ]
  %15 = phi ptr [ %.pre, %9 ], [ %5, %.lr.ph ]
  %.1 = phi i64 [ %12, %9 ], [ %.036, %.lr.ph ]
  %16 = and i64 %14, 2049
  %or.cond33.not = icmp eq i64 %16, 2049
  br i1 %or.cond33.not, label %17, label %21

17:                                               ; preds = %13
  %18 = getelementptr inbounds nuw %"struct.c4::yml::NodeData", ptr %15, i64 %.02837, i32 2
  %.sroa.0.0.copyload = load ptr, ptr %18, align 8, !tbaa !67
  %.sroa.2.0..sroa_idx = getelementptr inbounds nuw i8, ptr %18, i64 8
  %.sroa.2.0.copyload = load i64, ptr %.sroa.2.0..sroa_idx, align 8, !tbaa !68
  %19 = tail call noundef i64 @_ZNK2c43yml4Tree11resolve_tagENS_15basic_substringIcEENS2_IKcEEm(ptr noundef nonnull align 8 dereferenceable(256) %0, ptr null, i64 0, ptr %.sroa.0.0.copyload, i64 %.sroa.2.0.copyload, i64 noundef %.02837)
  %20 = add i64 %19, %.1
  br label %21

21:                                               ; preds = %17, %13
  %.2 = phi i64 [ %20, %17 ], [ %.1, %13 ]
  %22 = tail call fastcc noundef i64 @_ZN2c43yml12_GLOBAL__N_125_count_resolved_tags_sizeEPKNS0_4TreeEm(ptr noundef %0, i64 noundef %.02837)
  %23 = add i64 %22, %.2
  %24 = load ptr, ptr %0, align 8, !tbaa !116
  %25 = getelementptr inbounds nuw %"struct.c4::yml::NodeData", ptr %24, i64 %.02837, i32 6
  %.028 = load i64, ptr %25, align 8, !tbaa !68
  %.not = icmp eq i64 %.028, -1
  br i1 %.not, label %._crit_edge, label %.lr.ph, !llvm.loop !223
}